; Function Attrs: nounwind uwtable
define void @Aig_ManCounterExampleValueTest(ptr noundef captures(none) initializes((304, 312)) %0, ptr noundef readonly captures(none) %1) local_unnamed_addr #1 {
Aig_ManObj.exit:
  %2 = getelementptr i8, ptr %0, i64 32
  %.val13 = load ptr, ptr %2, align 8, !tbaa !21
  %3 = getelementptr i8, ptr %.val13, i64 4
  %.val13.val = load i32, ptr %3, align 4, !tbaa !22
  %4 = sdiv i32 %.val13.val, 2
  %5 = getelementptr i8, ptr %.val13, i64 8
  %.val.i = load ptr, ptr %5, align 8, !tbaa !24
  %6 = sext i32 %4 to i64
  %7 = getelementptr inbounds ptr, ptr %.val.i, i64 %6
  %8 = load ptr, ptr %7, align 8, !tbaa !25
  %9 = getelementptr inbounds nuw i8, ptr %1, i64 4
  %10 = load i32, ptr %9, align 4, !tbaa !99
  %11 = tail call i32 @llvm.smax.i32(i32 %10, i32 1)
  %12 = add nsw i32 %11, -1
  %13 = load i32, ptr %1, align 4, !tbaa !109
  %14 = tail call i32 (ptr, ...) @printf(ptr noundef nonnull dereferenceable(1) @.str.71, i32 noundef %13, i32 noundef %10)
  tail call void @Aig_ManCounterExampleValueStart(ptr noundef %0, ptr noundef nonnull %1)
  %15 = getelementptr i8, ptr %8, i64 36
  %.val12 = load i32, ptr %15, align 4, !tbaa !44
  %16 = getelementptr inbounds nuw i8, ptr %0, i64 304
  %17 = load ptr, ptr %16, align 8, !tbaa !101
  %.val.i15 = load ptr, ptr %2, align 8, !tbaa !21
  %18 = getelementptr i8, ptr %.val.i15, i64 4
  %.val.val.i = load i32, ptr %18, align 4, !tbaa !22
  %19 = mul nsw i32 %.val.val.i, %12
  %20 = add nsw i32 %19, %.val12
  %21 = ashr i32 %20, 5
  %22 = sext i32 %21 to i64
  %23 = getelementptr inbounds i32, ptr %17, i64 %22
  %24 = load i32, ptr %23, align 4, !tbaa !30
  %25 = and i32 %20, 31
  %26 = lshr i32 %24, %25
  %27 = and i32 %26, 1
  %28 = tail call i32 (ptr, ...) @printf(ptr noundef nonnull dereferenceable(1) @.str.72, i32 noundef %.val12, i32 noundef %12, i32 noundef %27)
  %29 = load ptr, ptr %16, align 8, !tbaa !101
  tail call void @free(ptr noundef %29) #25
  store ptr null, ptr %16, align 8, !tbaa !101
  ret void
}